; ModuleID = '21/647.cpp'
source_filename = "21/647.cpp"
target datalayout = "e-m:e-p270:32:32-p271:32:32-p272:64:64-i64:64-f80:128-n8:16:32:64-S128"
target triple = "x86_64-pc-linux-gnu"

%"class.std::ios_base::Init" = type { i8 }
%"class.std::basic_istream" = type { i32 (...)**, i64, %"class.std::basic_ios" }
%"class.std::basic_ios" = type { %"class.std::ios_base", %"class.std::basic_ostream"*, i8, i8, %"class.std::basic_streambuf"*, %"class.std::ctype"*, %"class.std::num_put"*, %"class.std::num_get"* }
%"class.std::ios_base" = type { i32 (...)**, i64, i64, i32, i32, i32, %"struct.std::ios_base::_Callback_list"*, %"struct.std::ios_base::_Words", [8 x %"struct.std::ios_base::_Words"], i32, %"struct.std::ios_base::_Words"*, %"class.std::locale" }
%"struct.std::ios_base::_Callback_list" = type { %"struct.std::ios_base::_Callback_list"*, void (i32, %"class.std::ios_base"*, i32)*, i32, i32 }
%"struct.std::ios_base::_Words" = type { i8*, i64 }
%"class.std::locale" = type { %"class.std::locale::_Impl"* }
%"class.std::locale::_Impl" = type { i32, %"class.std::locale::facet"**, i64, %"class.std::locale::facet"**, i8** }
%"class.std::locale::facet" = type <{ i32 (...)**, i32, [4 x i8] }>
%"class.std::basic_ostream" = type { i32 (...)**, %"class.std::basic_ios" }
%"class.std::basic_streambuf" = type { i32 (...)**, i8*, i8*, i8*, i8*, i8*, i8*, %"class.std::locale" }
%"class.std::ctype" = type <{ %"class.std::locale::facet.base", [4 x i8], %struct.__locale_struct*, i8, [7 x i8], i32*, i32*, i16*, i8, [256 x i8], [256 x i8], i8, [6 x i8] }>
%"class.std::locale::facet.base" = type <{ i32 (...)**, i32 }>
%struct.__locale_struct = type { [13 x %struct.__locale_data*], i16*, i32*, i32*, [13 x i8*] }
%struct.__locale_data = type opaque
%"class.std::num_put" = type { %"class.std::locale::facet.base", [4 x i8] }
%"class.std::num_get" = type { %"class.std::locale::facet.base", [4 x i8] }

@_ZStL8__ioinit = internal global %"class.std::ios_base::Init" zeroinitializer, align 1
@__dso_handle = external hidden global i8
@_ZSt3cin = external dso_local global %"class.std::basic_istream", align 8
@_ZSt4cout = external dso_local global %"class.std::basic_ostream", align 8
@.str = private unnamed_addr constant [2 x i8] c",\00", align 1
@llvm.global_ctors = appending global [1 x { i32, void ()*, i8* }] [{ i32, void ()*, i8* } { i32 65535, void ()* @_GLOBAL__sub_I_647.cpp, i8* null }]

; Function Attrs: noinline uwtable
define internal void @__cxx_global_var_init() #0 section ".text.startup" {
  call void @_ZNSt8ios_base4InitC1Ev(%"class.std::ios_base::Init"* @_ZStL8__ioinit)
  %1 = call i32 @__cxa_atexit(void (i8*)* bitcast (void (%"class.std::ios_base::Init"*)* @_ZNSt8ios_base4InitD1Ev to void (i8*)*), i8* getelementptr inbounds (%"class.std::ios_base::Init", %"class.std::ios_base::Init"* @_ZStL8__ioinit, i32 0, i32 0), i8* @__dso_handle) #3
  ret void
}

declare dso_local void @_ZNSt8ios_base4InitC1Ev(%"class.std::ios_base::Init"*) unnamed_addr #1

; Function Attrs: nounwind
declare dso_local void @_ZNSt8ios_base4InitD1Ev(%"class.std::ios_base::Init"*) unnamed_addr #2

; Function Attrs: nounwind
declare dso_local i32 @__cxa_atexit(void (i8*)*, i8*, i8*) #3

; Function Attrs: noinline nounwind uwtable
define dso_local float @_Z4tranf(float %0) #4 {
  %2 = alloca float, align 4
  %3 = alloca float, align 4
  store float %0, float* %3, align 4
  %4 = load float, float* %3, align 4
  %5 = fcmp olt float %4, 0.000000e+00
  br i1 %5, label %6, label %9

6:                                                ; preds = %1
  %7 = load float, float* %3, align 4
  %8 = fneg float %7
  store float %8, float* %2, align 4
  br label %11

9:                                                ; preds = %1
  %10 = load float, float* %3, align 4
  store float %10, float* %2, align 4
  br label %11

11:                                               ; preds = %9, %6
  %12 = load float, float* %2, align 4
  ret float %12
}

; Function Attrs: noinline norecurse uwtable
define dso_local i32 @main() #5 {
  %1 = alloca i32, align 4
  %2 = alloca i32, align 4
  %3 = alloca i32, align 4
  %4 = alloca i32, align 4
  %5 = alloca float, align 4
  %6 = alloca float, align 4
  %7 = alloca [301 x float], align 16
  %8 = alloca float, align 4
  %9 = alloca [301 x float], align 16
  store i32 0, i32* %1, align 4
  store i32 0, i32* %4, align 4
  store float 0.000000e+00, float* %8, align 4
  %10 = call dereferenceable(280) %"class.std::basic_istream"* @_ZNSirsERi(%"class.std::basic_istream"* @_ZSt3cin, i32* dereferenceable(4) %2)
  store i32 0, i32* %3, align 4
  br label %11

11:                                               ; preds = %26, %0
  %12 = load i32, i32* %3, align 4
  %13 = load i32, i32* %2, align 4
  %14 = icmp slt i32 %12, %13
  br i1 %14, label %15, label %29

15:                                               ; preds = %11
  %16 = load i32, i32* %3, align 4
  %17 = sext i32 %16 to i64
  %18 = getelementptr inbounds [301 x float], [301 x float]* %7, i64 0, i64 %17
  %19 = call dereferenceable(280) %"class.std::basic_istream"* @_ZNSirsERf(%"class.std::basic_istream"* @_ZSt3cin, float* dereferenceable(4) %18)
  %20 = load i32, i32* %3, align 4
  %21 = sext i32 %20 to i64
  %22 = getelementptr inbounds [301 x float], [301 x float]* %7, i64 0, i64 %21
  %23 = load float, float* %22, align 4
  %24 = load float, float* %8, align 4
  %25 = fadd float %24, %23
  store float %25, float* %8, align 4
  br label %26

26:                                               ; preds = %15
  %27 = load i32, i32* %3, align 4
  %28 = add nsw i32 %27, 1
  store i32 %28, i32* %3, align 4
  br label %11

29:                                               ; preds = %11
  %30 = load float, float* %8, align 4
  %31 = load i32, i32* %2, align 4
  %32 = sitofp i32 %31 to float
  %33 = fdiv float %30, %32
  store float %33, float* %5, align 4
  %34 = getelementptr inbounds [301 x float], [301 x float]* %7, i64 0, i64 0
  %35 = load float, float* %34, align 16
  %36 = load float, float* %5, align 4
  %37 = fsub float %35, %36
  %38 = call float @_Z4tranf(float %37)
  %39 = getelementptr inbounds [301 x float], [301 x float]* %9, i64 0, i64 0
  store float %38, float* %39, align 16
  %40 = getelementptr inbounds [301 x float], [301 x float]* %9, i64 0, i64 0
  %41 = load float, float* %40, align 16
  store float %41, float* %6, align 4
  store i32 1, i32* %3, align 4
  br label %42

42:                                               ; preds = %69, %29
  %43 = load i32, i32* %3, align 4
  %44 = load i32, i32* %2, align 4
  %45 = icmp slt i32 %43, %44
  br i1 %45, label %46, label %72

46:                                               ; preds = %42
  %47 = load i32, i32* %3, align 4
  %48 = sext i32 %47 to i64
  %49 = getelementptr inbounds [301 x float], [301 x float]* %7, i64 0, i64 %48
  %50 = load float, float* %49, align 4
  %51 = load float, float* %5, align 4
  %52 = fsub float %50, %51
  %53 = call float @_Z4tranf(float %52)
  %54 = load i32, i32* %3, align 4
  %55 = sext i32 %54 to i64
  %56 = getelementptr inbounds [301 x float], [301 x float]* %9, i64 0, i64 %55
  store float %53, float* %56, align 4
  %57 = load i32, i32* %3, align 4
  %58 = sext i32 %57 to i64
  %59 = getelementptr inbounds [301 x float], [301 x float]* %9, i64 0, i64 %58
  %60 = load float, float* %59, align 4
  %61 = load float, float* %6, align 4
  %62 = fcmp ogt float %60, %61
  br i1 %62, label %63, label %68

63:                                               ; preds = %46
  %64 = load i32, i32* %3, align 4
  %65 = sext i32 %64 to i64
  %66 = getelementptr inbounds [301 x float], [301 x float]* %9, i64 0, i64 %65
  %67 = load float, float* %66, align 4
  store float %67, float* %6, align 4
  br label %68

68:                                               ; preds = %63, %46
  br label %69

69:                                               ; preds = %68
  %70 = load i32, i32* %3, align 4
  %71 = add nsw i32 %70, 1
  store i32 %71, i32* %3, align 4
  br label %42

72:                                               ; preds = %42
  store i32 0, i32* %3, align 4
  br label %73

73:                                               ; preds = %104, %72
  %74 = load i32, i32* %3, align 4
  %75 = load i32, i32* %2, align 4
  %76 = icmp slt i32 %74, %75
  br i1 %76, label %77, label %107

77:                                               ; preds = %73
  %78 = load i32, i32* %3, align 4
  %79 = sext i32 %78 to i64
  %80 = getelementptr inbounds [301 x float], [301 x float]* %9, i64 0, i64 %79
  %81 = load float, float* %80, align 4
  %82 = load float, float* %6, align 4
  %83 = fcmp oeq float %81, %82
  br i1 %83, label %84, label %103

84:                                               ; preds = %77
  %85 = load i32, i32* %4, align 4
  %86 = icmp ne i32 %85, 0
  br i1 %86, label %87, label %94

87:                                               ; preds = %84
  %88 = call dereferenceable(272) %"class.std::basic_ostream"* @_ZStlsISt11char_traitsIcEERSt13basic_ostreamIcT_ES5_PKc(%"class.std::basic_ostream"* dereferenceable(272) @_ZSt4cout, i8* getelementptr inbounds ([2 x i8], [2 x i8]* @.str, i64 0, i64 0))
  %89 = load i32, i32* %3, align 4
  %90 = sext i32 %89 to i64
  %91 = getelementptr inbounds [301 x float], [301 x float]* %7, i64 0, i64 %90
  %92 = load float, float* %91, align 4
  %93 = call dereferenceable(272) %"class.std::basic_ostream"* @_ZNSolsEf(%"class.std::basic_ostream"* %88, float %92)
  br label %102

94:                                               ; preds = %84
  %95 = load i32, i32* %3, align 4
  %96 = sext i32 %95 to i64
  %97 = getelementptr inbounds [301 x float], [301 x float]* %7, i64 0, i64 %96
  %98 = load float, float* %97, align 4
  %99 = call dereferenceable(272) %"class.std::basic_ostream"* @_ZNSolsEf(%"class.std::basic_ostream"* @_ZSt4cout, float %98)
  %100 = load i32, i32* %4, align 4
  %101 = add nsw i32 %100, 1
  store i32 %101, i32* %4, align 4
  br label %102

102:                                              ; preds = %94, %87
  br label %103

103:                                              ; preds = %102, %77
  br label %104

104:                                              ; preds = %103
  %105 = load i32, i32* %3, align 4
  %106 = add nsw i32 %105, 1
  store i32 %106, i32* %3, align 4
  br label %73

107:                                              ; preds = %73
  ret i32 0
}

declare dso_local dereferenceable(280) %"class.std::basic_istream"* @_ZNSirsERi(%"class.std::basic_istream"*, i32* dereferenceable(4)) #1

declare dso_local dereferenceable(280) %"class.std::basic_istream"* @_ZNSirsERf(%"class.std::basic_istream"*, float* dereferenceable(4)) #1

declare dso_local dereferenceable(272) %"class.std::basic_ostream"* @_ZStlsISt11char_traitsIcEERSt13basic_ostreamIcT_ES5_PKc(%"class.std::basic_ostream"* dereferenceable(272), i8*) #1

declare dso_local dereferenceable(272) %"class.std::basic_ostream"* @_ZNSolsEf(%"class.std::basic_ostream"*, float) #1

; Function Attrs: noinline uwtable
define internal void @_GLOBAL__sub_I_647.cpp() #0 section ".text.startup" {
  call void @__cxx_global_var_init()
  ret void
}


!llvm.module.flags = !{!0}
!llvm.ident = !{!1}

!0 = !{i32 1, !"wchar_size", i32 4}
!1 = !{!"clang version 10.0.0-4ubuntu1 "}
